target datalayout = "e-m:e-p270:32:32-p271:32:32-p272:64:64-i64:64-i128:128-f80:128-n8:16:32:64-S128"
target triple = "x86_64-unknown-linux-gnu"

%"class.Assimp::PretransformVertices" = type <{ %"class.Assimp::BaseProcess", i8, i8, i8, i8, %class.aiMatrix4x4t, i8, [3 x i8] }>
%"class.Assimp::BaseProcess" = type { ptr, ptr, ptr }
%class.aiMatrix4x4t = type { float, float, float, float, float, float, float, float, float, float, float, float, float, float, float, float }

; Function Attrs: mustprogress nounwind uwtable
define linkonce_odr hidden void @_ZN12aiMatrix4x4tIfEC2Ev(ptr noundef nonnull align 4 dereferenceable(64) %this) unnamed_addr #0 comdat align 2 {
entry:
  %this.addr = alloca ptr, align 8
  store ptr %this, ptr %this.addr, align 8
  %this1 = load ptr, ptr %this.addr, align 8
  %a1 = getelementptr inbounds %class.aiMatrix4x4t, ptr %this1, i32 0, i32 0
  store float 1.000000e+00, ptr %a1, align 4
  %a2 = getelementptr inbounds %class.aiMatrix4x4t, ptr %this1, i32 0, i32 1
  store float 0.000000e+00, ptr %a2, align 4
  %a3 = getelementptr inbounds %class.aiMatrix4x4t, ptr %this1, i32 0, i32 2
  store float 0.000000e+00, ptr %a3, align 4
  %a4 = getelementptr inbounds %class.aiMatrix4x4t, ptr %this1, i32 0, i32 3
  store float 0.000000e+00, ptr %a4, align 4
  %b1 = getelementptr inbounds %class.aiMatrix4x4t, ptr %this1, i32 0, i32 4
  store float 0.000000e+00, ptr %b1, align 4
  %b2 = getelementptr inbounds %class.aiMatrix4x4t, ptr %this1, i32 0, i32 5
  store float 1.000000e+00, ptr %b2, align 4
  %b3 = getelementptr inbounds %class.aiMatrix4x4t, ptr %this1, i32 0, i32 6
  store float 0.000000e+00, ptr %b3, align 4
  %b4 = getelementptr inbounds %class.aiMatrix4x4t, ptr %this1, i32 0, i32 7
  store float 0.000000e+00, ptr %b4, align 4
  %c1 = getelementptr inbounds %class.aiMatrix4x4t, ptr %this1, i32 0, i32 8
  store float 0.000000e+00, ptr %c1, align 4
  %c2 = getelementptr inbounds %class.aiMatrix4x4t, ptr %this1, i32 0, i32 9
  store float 0.000000e+00, ptr %c2, align 4
  %c3 = getelementptr inbounds %class.aiMatrix4x4t, ptr %this1, i32 0, i32 10
  store float 1.000000e+00, ptr %c3, align 4
  %c4 = getelementptr inbounds %class.aiMatrix4x4t, ptr %this1, i32 0, i32 11
  store float 0.000000e+00, ptr %c4, align 4
  %d1 = getelementptr inbounds %class.aiMatrix4x4t, ptr %this1, i32 0, i32 12
  store float 0.000000e+00, ptr %d1, align 4
  %d2 = getelementptr inbounds %class.aiMatrix4x4t, ptr %this1, i32 0, i32 13
  store float 0.000000e+00, ptr %d2, align 4
  %d3 = getelementptr inbounds %class.aiMatrix4x4t, ptr %this1, i32 0, i32 14
  store float 0.000000e+00, ptr %d3, align 4
  %d4 = getelementptr inbounds %class.aiMatrix4x4t, ptr %this1, i32 0, i32 15
  store float 1.000000e+00, ptr %d4, align 4
  ret void
}

; Function Attrs: mustprogress nounwind uwtable
define void @_ZN6Assimp20PretransformVerticesC2Ev(ptr noundef nonnull align 8 dereferenceable(93) %this) unnamed_addr #0 align 2 {
entry:
  %this.addr = alloca ptr, align 8
  store ptr %this, ptr %this.addr, align 8
  %this1 = load ptr, ptr %this.addr, align 8
  call void @_ZN6Assimp11BaseProcessC2Ev(ptr noundef nonnull align 8 dereferenceable(24) %this1) #15
  store ptr getelementptr inbounds ({ [8 x ptr] }, ptr @_ZTVN6Assimp20PretransformVerticesE, i32 0, i32 0, i32 2), ptr %this1, align 8
  %mConfigKeepHierarchy = getelementptr inbounds %"class.Assimp::PretransformVertices", ptr %this1, i32 0, i32 1
  store i8 0, ptr %mConfigKeepHierarchy, align 8
  %mConfigNormalize = getelementptr inbounds %"class.Assimp::PretransformVertices", ptr %this1, i32 0, i32 2
  store i8 0, ptr %mConfigNormalize, align 1
  %mConfigTransform = getelementptr inbounds %"class.Assimp::PretransformVertices", ptr %this1, i32 0, i32 3
  store i8 0, ptr %mConfigTransform, align 2
  %mConfigTransformation = getelementptr inbounds %"class.Assimp::PretransformVertices", ptr %this1, i32 0, i32 5
  call void @_ZN12aiMatrix4x4tIfEC2Ev(ptr noundef nonnull align 4 dereferenceable(64) %mConfigTransformation) #15
  %mConfigPointCloud = getelementptr inbounds %"class.Assimp::PretransformVertices", ptr %this1, i32 0, i32 6
  store i8 0, ptr %mConfigPointCloud, align 4
  ret void
}