; Function Attrs: mustprogress nounwind uwtable
define void @_ZN6Assimp20PretransformVerticesC2Ev(ptr noundef nonnull align 8 dereferenceable(93) %this) unnamed_addr #0 align 2 {
entry:
  tail call void @_ZN6Assimp11BaseProcessC2Ev(ptr noundef nonnull align 8 dereferenceable(24) %this) #19
  store ptr getelementptr inbounds ({ [8 x ptr] }, ptr @_ZTVN6Assimp20PretransformVerticesE, i64 0, i32 0, i64 2), ptr %this, align 8
  %mConfigKeepHierarchy = getelementptr inbounds i8, ptr %this, i64 24
  store i8 0, ptr %mConfigKeepHierarchy, align 8
  %mConfigNormalize = getelementptr inbounds i8, ptr %this, i64 25
  store i8 0, ptr %mConfigNormalize, align 1
  %mConfigTransform = getelementptr inbounds i8, ptr %this, i64 26
  store i8 0, ptr %mConfigTransform, align 2
  %mConfigTransformation = getelementptr inbounds i8, ptr %this, i64 28
  store float 1.000000e+00, ptr %mConfigTransformation, align 4
  %a2.i = getelementptr inbounds i8, ptr %this, i64 32
  %b2.i = getelementptr inbounds i8, ptr %this, i64 48
  tail call void @llvm.memset.p0.i64(ptr noundef nonnull align 8 dereferenceable(16) %a2.i, i8 0, i64 16, i1 false)
  store float 1.000000e+00, ptr %b2.i, align 8
  %b3.i = getelementptr inbounds i8, ptr %this, i64 52
  %c3.i = getelementptr inbounds i8, ptr %this, i64 68
  tail call void @llvm.memset.p0.i64(ptr noundef nonnull align 4 dereferenceable(16) %b3.i, i8 0, i64 16, i1 false)
  store float 1.000000e+00, ptr %c3.i, align 4
  %c4.i = getelementptr inbounds i8, ptr %this, i64 72
  %d4.i = getelementptr inbounds i8, ptr %this, i64 88
  tail call void @llvm.memset.p0.i64(ptr noundef nonnull align 8 dereferenceable(16) %c4.i, i8 0, i64 16, i1 false)
  store float 1.000000e+00, ptr %d4.i, align 8
  %mConfigPointCloud = getelementptr inbounds i8, ptr %this, i64 92
  store i8 0, ptr %mConfigPointCloud, align 4
  ret void
}